; Function Attrs: mustprogress nofree norecurse nosync nounwind willreturn memory(read, inaccessiblemem: none) uwtable
define dso_local noundef zeroext i1 @_ZThn88_N4node15LibuvStreamWrap9IsIPCPipeEv(ptr nocapture noundef readonly %this) unnamed_addr #8 align 2 {
entry:
  %stream_.i.i.i.i = getelementptr inbounds i8, ptr %this, i64 64
  %0 = load ptr, ptr %stream_.i.i.i.i, align 8
  %type.i.i.i = getelementptr inbounds i8, ptr %0, i64 16
  %1 = load i32, ptr %type.i.i.i, align 8
  %cmp.i.i.i = icmp eq i32 %1, 7
  br i1 %cmp.i.i.i, label %land.rhs.i.i, label %_ZN4node15LibuvStreamWrap9IsIPCPipeEv.exit

land.rhs.i.i:                                     ; preds = %entry
  %ipc.i.i = getelementptr inbounds i8, ptr %0, i64 248
  %2 = load i32, ptr %ipc.i.i, align 8
  %cmp.i.i = icmp ne i32 %2, 0
  br label %_ZN4node15LibuvStreamWrap9IsIPCPipeEv.exit

_ZN4node15LibuvStreamWrap9IsIPCPipeEv.exit:       ; preds = %entry, %land.rhs.i.i
  %3 = phi i1 [ false, %entry ], [ %cmp.i.i, %land.rhs.i.i ]
  ret i1 %3
}